target datalayout = "e-m:e-p270:32:32-p271:32:32-p272:64:64-i64:64-i128:128-f80:128-n8:16:32:64-S128"
target triple = "x86_64-unknown-linux-gnu"

%"class.pbrt::Primitive" = type { %"class.pbrt::TaggedPointer" }
%"class.pbrt::TaggedPointer" = type { i64 }
%"class.pbrt::CPUAggregate" = type { %"class.pbrt::WavefrontAggregate", %"class.pbrt::Primitive" }
%"class.pbrt::WavefrontAggregate" = type { ptr }

; Function Attrs: mustprogress nounwind uwtable
define linkonce_odr dso_local noundef nonnull align 8 dereferenceable(8) ptr @_ZN4pbrt13TaggedPointerIJNS_15SimplePrimitiveENS_18GeometricPrimitiveENS_20TransformedPrimitiveENS_17AnimatedPrimitiveENS_12BVHAggregateENS_15KdTreeAggregateEEEaSERKS7_(ptr noundef nonnull align 8 dereferenceable(8) %this, ptr noundef nonnull align 8 dereferenceable(8) %t) #2 comdat align 2 {
entry:
  %this.addr = alloca ptr, align 8
  %t.addr = alloca ptr, align 8
  store ptr %this, ptr %this.addr, align 8
  store ptr %t, ptr %t.addr, align 8
  %this1 = load ptr, ptr %this.addr, align 8
  %0 = load ptr, ptr %t.addr, align 8
  %bits = getelementptr inbounds %"class.pbrt::TaggedPointer", ptr %0, i32 0, i32 0
  %1 = load i64, ptr %bits, align 8
  %bits2 = getelementptr inbounds %"class.pbrt::TaggedPointer", ptr %this1, i32 0, i32 0
  store i64 %1, ptr %bits2, align 8
  ret ptr %this1
}

; Function Attrs: mustprogress nounwind uwtable
define linkonce_odr dso_local void @_ZN4pbrt13TaggedPointerIJNS_15SimplePrimitiveENS_18GeometricPrimitiveENS_20TransformedPrimitiveENS_17AnimatedPrimitiveENS_12BVHAggregateENS_15KdTreeAggregateEEEC2Ev(ptr noundef nonnull align 8 dereferenceable(8) %this) unnamed_addr #2 comdat align 2 {
entry:
  %this.addr = alloca ptr, align 8
  store ptr %this, ptr %this.addr, align 8
  %this1 = load ptr, ptr %this.addr, align 8
  %bits = getelementptr inbounds %"class.pbrt::TaggedPointer", ptr %this1, i32 0, i32 0
  store i64 0, ptr %bits, align 8
  ret void
}

; Function Attrs: mustprogress nounwind uwtable
define linkonce_odr dso_local void @_ZN4pbrt18WavefrontAggregateD2Ev(ptr noundef nonnull align 8 dereferenceable(8) %this) unnamed_addr #2 comdat align 2 {
entry:
  %this.addr = alloca ptr, align 8
  store ptr %this, ptr %this.addr, align 8
  ret void
}

; Function Attrs: mustprogress uwtable
define linkonce_odr dso_local noundef nonnull align 8 dereferenceable(8) ptr @_ZN4pbrt9PrimitiveaSEOS0_(ptr noundef nonnull align 8 dereferenceable(8) %this, ptr noundef nonnull align 8 dereferenceable(8) %0) #1 comdat align 2 {
entry:
  %this.addr = alloca ptr, align 8
  %.addr = alloca ptr, align 8
  store ptr %this, ptr %this.addr, align 8
  store ptr %0, ptr %.addr, align 8
  %this1 = load ptr, ptr %this.addr, align 8
  %1 = load ptr, ptr %.addr, align 8
  %call = call noundef nonnull align 8 dereferenceable(8) ptr @_ZN4pbrt13TaggedPointerIJNS_15SimplePrimitiveENS_18GeometricPrimitiveENS_20TransformedPrimitiveENS_17AnimatedPrimitiveENS_12BVHAggregateENS_15KdTreeAggregateEEEaSERKS7_(ptr noundef nonnull align 8 dereferenceable(8) %this1, ptr noundef nonnull align 8 dereferenceable(8) %1)
  ret ptr %this1
}

; Function Attrs: mustprogress nounwind uwtable
define linkonce_odr dso_local void @_ZN4pbrt9PrimitiveC2Ev(ptr noundef nonnull align 8 dereferenceable(8) %this) unnamed_addr #2 comdat align 2 {
entry:
  %this.addr = alloca ptr, align 8
  store ptr %this, ptr %this.addr, align 8
  %this1 = load ptr, ptr %this.addr, align 8
  call void @_ZN4pbrt13TaggedPointerIJNS_15SimplePrimitiveENS_18GeometricPrimitiveENS_20TransformedPrimitiveENS_17AnimatedPrimitiveENS_12BVHAggregateENS_15KdTreeAggregateEEEC2Ev(ptr noundef nonnull align 8 dereferenceable(8) %this1) #16
  ret void
}

; Function Attrs: mustprogress nounwind uwtable
define linkonce_odr dso_local void @_ZN4pbrt18WavefrontAggregateC2Ev(ptr noundef nonnull align 8 dereferenceable(8) %this) unnamed_addr #2 comdat align 2 {
entry:
  %this.addr = alloca ptr, align 8
  store ptr %this, ptr %this.addr, align 8
  %this1 = load ptr, ptr %this.addr, align 8
  store ptr getelementptr inbounds ({ [9 x ptr] }, ptr @_ZTVN4pbrt18WavefrontAggregateE, i32 0, i32 0, i32 2), ptr %this1, align 8
  ret void
}

; Function Attrs: mustprogress uwtable
define dso_local void @_ZN4pbrt12CPUAggregateC2ERNS_10BasicSceneERNS_13NamedTexturesERKSt3mapIiPN4pstd6vectorINS_5LightENS6_3pmr21polymorphic_allocatorIS8_EEEESt4lessIiESaISt4pairIKiSD_EEERKS5_INSt7__cxx1112basic_stringIcSt11char_traitsIcESaIcEEENS_6MediumESE_ISS_ESaISG_IKSS_ST_EEERKS5_ISS_NS_8MaterialESU_SaISG_ISV_S11_EEERKSt6vectorIS11_SaIS11_EE(ptr noundef nonnull align 8 dereferenceable(16) %this, ptr noundef nonnull align 8 dereferenceable(1520) %scene, ptr noundef nonnull align 8 dereferenceable(192) %textures, ptr noundef nonnull align 1 %shapeIndexToAreaLights, ptr noundef nonnull align 8 dereferenceable(48) %media, ptr noundef nonnull align 1 %namedMaterials, ptr noundef nonnull align 1 %materials) unnamed_addr #1 align 2 personality ptr @__gxx_personality_v0 {
entry:
  %this.addr = alloca ptr, align 8
  %scene.addr = alloca ptr, align 8
  %textures.addr = alloca ptr, align 8
  %shapeIndexToAreaLights.addr = alloca ptr, align 8
  %media.addr = alloca ptr, align 8
  %namedMaterials.addr = alloca ptr, align 8
  %materials.addr = alloca ptr, align 8
  %ref.tmp = alloca %"class.pbrt::Primitive", align 8
  %exn.slot = alloca ptr, align 8
  %ehselector.slot = alloca i32, align 4
  store ptr %this, ptr %this.addr, align 8
  store ptr %scene, ptr %scene.addr, align 8
  store ptr %textures, ptr %textures.addr, align 8
  store ptr %shapeIndexToAreaLights, ptr %shapeIndexToAreaLights.addr, align 8
  store ptr %media, ptr %media.addr, align 8
  store ptr %namedMaterials, ptr %namedMaterials.addr, align 8
  store ptr %materials, ptr %materials.addr, align 8
  %this1 = load ptr, ptr %this.addr, align 8
  call void @_ZN4pbrt18WavefrontAggregateC2Ev(ptr noundef nonnull align 8 dereferenceable(8) %this1) #16
  store ptr getelementptr inbounds ({ [9 x ptr] }, ptr @_ZTVN4pbrt12CPUAggregateE, i32 0, i32 0, i32 2), ptr %this1, align 8
  %aggregate = getelementptr inbounds %"class.pbrt::CPUAggregate", ptr %this1, i32 0, i32 1
  call void @_ZN4pbrt9PrimitiveC2Ev(ptr noundef nonnull align 8 dereferenceable(8) %aggregate) #16
  %0 = load ptr, ptr %scene.addr, align 8
  %1 = load ptr, ptr %textures.addr, align 8
  %2 = load ptr, ptr %shapeIndexToAreaLights.addr, align 8
  %3 = load ptr, ptr %media.addr, align 8
  %4 = load ptr, ptr %namedMaterials.addr, align 8
  %5 = load ptr, ptr %materials.addr, align 8
  invoke void @_ZN4pbrt10BasicScene15CreateAggregateERKNS_13NamedTexturesERKSt3mapIiPN4pstd6vectorINS_5LightENS5_3pmr21polymorphic_allocatorIS7_EEEESt4lessIiESaISt4pairIKiSC_EEERKS4_INSt7__cxx1112basic_stringIcSt11char_traitsIcESaIcEEENS_6MediumESD_ISR_ESaISF_IKSR_SS_EEERKS4_ISR_NS_8MaterialEST_SaISF_ISU_S10_EEERKSt6vectorIS10_SaIS10_EE(ptr sret(%"class.pbrt::Primitive") align 8 %ref.tmp, ptr noundef nonnull align 8 dereferenceable(1520) %0, ptr noundef nonnull align 8 dereferenceable(192) %1, ptr noundef nonnull align 1 %2, ptr noundef nonnull align 8 dereferenceable(48) %3, ptr noundef nonnull align 1 %4, ptr noundef nonnull align 1 %5)
          to label %invoke.cont unwind label %lpad

invoke.cont:                                      ; preds = %entry
  %aggregate2 = getelementptr inbounds %"class.pbrt::CPUAggregate", ptr %this1, i32 0, i32 1
  %call = invoke noundef nonnull align 8 dereferenceable(8) ptr @_ZN4pbrt9PrimitiveaSEOS0_(ptr noundef nonnull align 8 dereferenceable(8) %aggregate2, ptr noundef nonnull align 8 dereferenceable(8) %ref.tmp)
          to label %invoke.cont3 unwind label %lpad

invoke.cont3:                                     ; preds = %invoke.cont
  ret void

lpad:                                             ; preds = %invoke.cont, %entry
  %6 = landingpad { ptr, i32 }
          cleanup
  %7 = extractvalue { ptr, i32 } %6, 0
  store ptr %7, ptr %exn.slot, align 8
  %8 = extractvalue { ptr, i32 } %6, 1
  store i32 %8, ptr %ehselector.slot, align 4
  call void @_ZN4pbrt18WavefrontAggregateD2Ev(ptr noundef nonnull align 8 dereferenceable(8) %this1) #16
  br label %eh.resume

eh.resume:                                        ; preds = %lpad
  %exn = load ptr, ptr %exn.slot, align 8
  %sel = load i32, ptr %ehselector.slot, align 4
  %lpad.val = insertvalue { ptr, i32 } poison, ptr %exn, 0
  %lpad.val4 = insertvalue { ptr, i32 } %lpad.val, i32 %sel, 1
  resume { ptr, i32 } %lpad.val4
}