; Function Attrs: mustprogress uwtable
define dso_local void @_ZN4pbrt12CPUAggregateC2ERNS_10BasicSceneERNS_13NamedTexturesERKSt3mapIiPN4pstd6vectorINS_5LightENS6_3pmr21polymorphic_allocatorIS8_EEEESt4lessIiESaISt4pairIKiSD_EEERKS5_INSt7__cxx1112basic_stringIcSt11char_traitsIcESaIcEEENS_6MediumESE_ISS_ESaISG_IKSS_ST_EEERKS5_ISS_NS_8MaterialESU_SaISG_ISV_S11_EEERKSt6vectorIS11_SaIS11_EE(ptr nocapture noundef nonnull writeonly align 8 dereferenceable(16) %this, ptr noundef nonnull align 8 dereferenceable(1520) %scene, ptr noundef nonnull align 8 dereferenceable(192) %textures, ptr noundef nonnull align 1 %shapeIndexToAreaLights, ptr noundef nonnull align 8 dereferenceable(48) %media, ptr noundef nonnull align 1 %namedMaterials, ptr noundef nonnull align 1 %materials) unnamed_addr #1 align 2 personality ptr @__gxx_personality_v0 {
entry:
  %ref.tmp = alloca %"class.pbrt::Primitive", align 8
  store ptr getelementptr inbounds ({ [9 x ptr] }, ptr @_ZTVN4pbrt12CPUAggregateE, i64 0, i32 0, i64 2), ptr %this, align 8
  %aggregate = getelementptr inbounds i8, ptr %this, i64 8
  store i64 0, ptr %aggregate, align 8
  call void @_ZN4pbrt10BasicScene15CreateAggregateERKNS_13NamedTexturesERKSt3mapIiPN4pstd6vectorINS_5LightENS5_3pmr21polymorphic_allocatorIS7_EEEESt4lessIiESaISt4pairIKiSC_EEERKS4_INSt7__cxx1112basic_stringIcSt11char_traitsIcESaIcEEENS_6MediumESD_ISR_ESaISF_IKSR_SS_EEERKS4_ISR_NS_8MaterialEST_SaISF_ISU_S10_EEERKSt6vectorIS10_SaIS10_EE(ptr nonnull sret(%"class.pbrt::Primitive") align 8 %ref.tmp, ptr noundef nonnull align 8 dereferenceable(1520) %scene, ptr noundef nonnull align 8 dereferenceable(192) %textures, ptr noundef nonnull align 1 %shapeIndexToAreaLights, ptr noundef nonnull align 8 dereferenceable(48) %media, ptr noundef nonnull align 1 %namedMaterials, ptr noundef nonnull align 1 %materials)
  %0 = load i64, ptr %ref.tmp, align 8
  store i64 %0, ptr %aggregate, align 8
  ret void
}